target datalayout = "e-m:e-p270:32:32-p271:32:32-p272:64:64-i64:64-i128:128-f80:128-n8:16:32:64-S128"
target triple = "x86_64-pc-linux-gnu"

@.str.16 = private unnamed_addr constant [5 x i8] c"%d%n\00", align 1

; Function Attrs: nounwind uwtable
define internal ptr @split(ptr noundef %0, i8 noundef signext %1) #1 {
  %3 = alloca ptr, align 8
  %4 = alloca i8, align 1
  %5 = alloca ptr, align 8
  store ptr %0, ptr %3, align 8, !tbaa !28
  store i8 %1, ptr %4, align 1, !tbaa !24
  call void @llvm.lifetime.start.p0(i64 8, ptr %5) #8
  %6 = load ptr, ptr %3, align 8, !tbaa !28
  %7 = load i8, ptr %4, align 1, !tbaa !24
  %8 = sext i8 %7 to i32
  %9 = call ptr @strchr(ptr noundef %6, i32 noundef %8) #9
  store ptr %9, ptr %5, align 8, !tbaa !28
  %10 = load ptr, ptr %5, align 8, !tbaa !28
  %11 = icmp ne ptr %10, null
  br i1 %11, label %12, label %15

12:                                               ; preds = %2
  %13 = load ptr, ptr %5, align 8, !tbaa !28
  %14 = getelementptr inbounds nuw i8, ptr %13, i32 1
  store ptr %14, ptr %5, align 8, !tbaa !28
  store i8 0, ptr %13, align 1, !tbaa !24
  br label %15

15:                                               ; preds = %12, %2
  %16 = load ptr, ptr %5, align 8, !tbaa !28
  call void @llvm.lifetime.end.p0(i64 8, ptr %5) #8
  ret ptr %16
}

; Function Attrs: nounwind uwtable
define internal i32 @get_channel_idx(ptr noundef %0, ptr noundef %1, i8 noundef signext %2) #1 {
  %4 = alloca i32, align 4
  %5 = alloca ptr, align 8
  %6 = alloca ptr, align 8
  %7 = alloca i8, align 1
  %8 = alloca ptr, align 8
  %9 = alloca i32, align 4
  %10 = alloca i32, align 4
  %11 = alloca i32, align 4
  store ptr %0, ptr %5, align 8, !tbaa !72
  store ptr %1, ptr %6, align 8, !tbaa !79
  store i8 %2, ptr %7, align 1, !tbaa !24
  call void @llvm.lifetime.start.p0(i64 8, ptr %8) #8
  call void @llvm.lifetime.start.p0(i64 4, ptr %9) #8
  call void @llvm.lifetime.start.p0(i64 4, ptr %10) #8
  store i32 0, ptr %10, align 4, !tbaa !25
  %12 = load ptr, ptr %5, align 8, !tbaa !72
  %13 = load ptr, ptr %12, align 8, !tbaa !28
  %14 = icmp ne ptr %13, null
  br i1 %14, label %16, label %15

15:                                               ; preds = %3
  store i32 -22, ptr %4, align 4
  store i32 1, ptr %11, align 4
  br label %49

16:                                               ; preds = %3
  %17 = load ptr, ptr %5, align 8, !tbaa !72
  %18 = load ptr, ptr %17, align 8, !tbaa !28
  %19 = load i8, ptr %7, align 1, !tbaa !24
  %20 = call ptr @split(ptr noundef %18, i8 noundef signext %19)
  store ptr %20, ptr %8, align 8, !tbaa !28
  %21 = load ptr, ptr %8, align 8, !tbaa !28
  %22 = icmp ne ptr %21, null
  br i1 %22, label %28, label %23

23:                                               ; preds = %16
  %24 = load i8, ptr %7, align 1, !tbaa !24
  %25 = sext i8 %24 to i32
  %26 = icmp eq i32 %25, 45
  br i1 %26, label %27, label %28

27:                                               ; preds = %23
  store i32 -22, ptr %4, align 4
  store i32 1, ptr %11, align 4
  br label %49

28:                                               ; preds = %23, %16
  %29 = load ptr, ptr %5, align 8, !tbaa !72
  %30 = load ptr, ptr %29, align 8, !tbaa !28
  %31 = call i64 @strlen(ptr noundef %30) #9
  %32 = trunc i64 %31 to i32
  store i32 %32, ptr %9, align 4, !tbaa !25
  %33 = load ptr, ptr %5, align 8, !tbaa !72
  %34 = load ptr, ptr %33, align 8, !tbaa !28
  %35 = load ptr, ptr %6, align 8, !tbaa !79
  %36 = call i32 (ptr, ptr, ...) @__isoc99_sscanf(ptr noundef %34, ptr noundef @.str.16, ptr noundef %35, ptr noundef %10) #8
  %37 = load i32, ptr %10, align 4, !tbaa !25
  %38 = load i32, ptr %9, align 4, !tbaa !25
  %39 = icmp ne i32 %37, %38
  br i1 %39, label %40, label %41

40:                                               ; preds = %28
  store i32 -22, ptr %4, align 4
  store i32 1, ptr %11, align 4
  br label %49

41:                                               ; preds = %28
  %42 = load ptr, ptr %6, align 8, !tbaa !79
  %43 = load i32, ptr %42, align 4, !tbaa !25
  %44 = icmp slt i32 %43, 0
  br i1 %44, label %45, label %46

45:                                               ; preds = %41
  store i32 -22, ptr %4, align 4
  store i32 1, ptr %11, align 4
  br label %49

46:                                               ; preds = %41
  %47 = load ptr, ptr %8, align 8, !tbaa !28
  %48 = load ptr, ptr %5, align 8, !tbaa !72
  store ptr %47, ptr %48, align 8, !tbaa !28
  store i32 0, ptr %4, align 4
  store i32 1, ptr %11, align 4
  br label %49

49:                                               ; preds = %46, %45, %40, %27, %15
  call void @llvm.lifetime.end.p0(i64 4, ptr %10) #8
  call void @llvm.lifetime.end.p0(i64 4, ptr %9) #8
  call void @llvm.lifetime.end.p0(i64 8, ptr %8) #8
  %50 = load i32, ptr %4, align 4
  ret i32 %50
}