; Function Attrs: nofree nounwind uwtable
define internal fastcc range(i32 -22, 1) i32 @get_channel_idx(ptr noundef nonnull captures(none) %0, ptr noundef nonnull %1, i8 noundef signext range(i8 45, 125) %2) unnamed_addr #6 {
  %4 = alloca i32, align 4
  call void @llvm.lifetime.start.p0(i64 4, ptr nonnull %4) #10
  store i32 0, ptr %4, align 4, !tbaa !30
  %5 = load ptr, ptr %0, align 8, !tbaa !20
  %.not = icmp eq ptr %5, null
  br i1 %.not, label %21, label %6

6:                                                ; preds = %3
  %7 = zext nneg i8 %2 to i32
  %8 = tail call ptr @strchr(ptr noundef nonnull dereferenceable(1) %5, i32 noundef %7) #11
  %.not.i = icmp eq ptr %8, null
  br i1 %.not.i, label %split.exit, label %split.exit.thread

split.exit.thread:                                ; preds = %6
  %9 = getelementptr inbounds nuw i8, ptr %8, i64 1
  store i8 0, ptr %8, align 1, !tbaa !26
  %.pre = load ptr, ptr %0, align 8, !tbaa !20
  br label %11

split.exit:                                       ; preds = %6
  %10 = icmp eq i8 %2, 45
  br i1 %10, label %21, label %11

11:                                               ; preds = %split.exit.thread, %split.exit
  %12 = phi ptr [ %.pre, %split.exit.thread ], [ %5, %split.exit ]
  %.0.i18 = phi ptr [ %9, %split.exit.thread ], [ null, %split.exit ]
  %13 = tail call i64 @strlen(ptr noundef nonnull dereferenceable(1) %12) #11
  %14 = trunc i64 %13 to i32
  %15 = call i32 (ptr, ptr, ...) @__isoc99_sscanf(ptr noundef nonnull %12, ptr noundef nonnull @.str.16, ptr noundef nonnull %1, ptr noundef nonnull %4) #10
  %16 = load i32, ptr %4, align 4, !tbaa !30
  %.not15 = icmp eq i32 %16, %14
  br i1 %.not15, label %17, label %21

17:                                               ; preds = %11
  %18 = load i32, ptr %1, align 4, !tbaa !30
  %19 = icmp slt i32 %18, 0
  br i1 %19, label %21, label %20

20:                                               ; preds = %17
  store ptr %.0.i18, ptr %0, align 8, !tbaa !20
  br label %21

21:                                               ; preds = %17, %11, %split.exit, %3, %20
  %.0 = phi i32 [ 0, %20 ], [ -22, %3 ], [ -22, %split.exit ], [ -22, %11 ], [ -22, %17 ]
  call void @llvm.lifetime.end.p0(i64 4, ptr nonnull %4) #10
  ret i32 %.0
}